; ModuleID = 'bench/openssl/original/dso_err.ll'
source_filename = "bench/openssl/original/dso_err.ll"
target datalayout = "e-m:e-p270:32:32-p271:32:32-p272:64:64-i64:64-i128:128-f80:128-n8:16:32:64-S128"
target triple = "x86_64-pc-linux-gnu"

%struct.ERR_string_data_st = type { i64, ptr }

@DSO_str_reasons = internal constant [17 x %struct.ERR_string_data_st] [%struct.ERR_string_data_st { i64 310378596, ptr @.str }, %struct.ERR_string_data_st { i64 310378606, ptr @.str.1 }, %struct.ERR_string_data_st { i64 310378609, ptr @.str.2 }, %struct.ERR_string_data_st { i64 310378610, ptr @.str.3 }, %struct.ERR_string_data_st { i64 310378597, ptr @.str.4 }, %struct.ERR_string_data_st { i64 310378598, ptr @.str.5 }, %struct.ERR_string_data_st { i64 310378611, ptr @.str.6 }, %struct.ERR_string_data_st { i64 310378599, ptr @.str.7 }, %struct.ERR_string_data_st { i64 310378605, ptr @.str.8 }, %struct.ERR_string_data_st { i64 310378607, ptr @.str.9 }, %struct.ERR_string_data_st { i64 310378600, ptr @.str.10 }, %struct.ERR_string_data_st { i64 310378608, ptr @.str.11 }, %struct.ERR_string_data_st { i64 310378601, ptr @.str.12 }, %struct.ERR_string_data_st { i64 310378602, ptr @.str.13 }, %struct.ERR_string_data_st { i64 310378603, ptr @.str.14 }, %struct.ERR_string_data_st { i64 310378604, ptr @.str.15 }, %struct.ERR_string_data_st zeroinitializer], align 16
@.str = private unnamed_addr constant [23 x i8] c"control command failed\00", align 1
@.str.1 = private unnamed_addr constant [19 x i8] c"dso already loaded\00", align 1
@.str.2 = private unnamed_addr constant [21 x i8] c"empty file structure\00", align 1
@.str.3 = private unnamed_addr constant [8 x i8] c"failure\00", align 1
@.str.4 = private unnamed_addr constant [17 x i8] c"filename too big\00", align 1
@.str.5 = private unnamed_addr constant [31 x i8] c"cleanup method function failed\00", align 1
@.str.6 = private unnamed_addr constant [22 x i8] c"incorrect file syntax\00", align 1
@.str.7 = private unnamed_addr constant [34 x i8] c"could not load the shared library\00", align 1
@.str.8 = private unnamed_addr constant [24 x i8] c"name translation failed\00", align 1
@.str.9 = private unnamed_addr constant [12 x i8] c"no filename\00", align 1
@.str.10 = private unnamed_addr constant [38 x i8] c"a null shared library handle was used\00", align 1
@.str.11 = private unnamed_addr constant [20 x i8] c"set filename failed\00", align 1
@.str.12 = private unnamed_addr constant [31 x i8] c"the meth_data stack is corrupt\00", align 1
@.str.13 = private unnamed_addr constant [44 x i8] c"could not bind to the requested symbol name\00", align 1
@.str.14 = private unnamed_addr constant [36 x i8] c"could not unload the shared library\00", align 1
@.str.15 = private unnamed_addr constant [28 x i8] c"functionality not supported\00", align 1

; Function Attrs: nounwind uwtable
define noundef i32 @ossl_err_load_DSO_strings() local_unnamed_addr #0 {
  %1 = tail call ptr @ERR_reason_error_string(i64 noundef 310378596) #2
  %2 = icmp eq ptr %1, null
  br i1 %2, label %3, label %5

3:                                                ; preds = %0
  %4 = tail call i32 @ERR_load_strings_const(ptr noundef nonnull @DSO_str_reasons) #2
  br label %5

5:                                                ; preds = %3, %0
  ret i32 1
}

declare ptr @ERR_reason_error_string(i64 noundef) local_unnamed_addr #1

declare i32 @ERR_load_strings_const(ptr noundef) local_unnamed_addr #1


!llvm.module.flags = !{!0, !1, !2}

!0 = !{i32 1, !"wchar_size", i32 4}
!1 = !{i32 8, !"PIC Level", i32 2}
!2 = !{i32 7, !"uwtable", i32 2}
